; Function Attrs: null_pointer_is_valid sspstrong uwtable
define hidden ptr @cf_get_packet_block(ptr noundef %0, ptr noundef %1) local_unnamed_addr #1 {
  %3 = alloca i32, align 4
  %4 = alloca ptr, align 8
  %5 = alloca %struct.wtap_rec, align 8
  %6 = getelementptr inbounds nuw i8, ptr %1, i64 57
  %7 = load i16, ptr %6, align 1
  %8 = and i16 %7, 256
  %.not = icmp eq i16 %8, 0
  br i1 %.not, label %13, label %9

9:                                                ; preds = %2
  %10 = getelementptr inbounds nuw i8, ptr %0, i64 224
  %11 = tail call ptr @cap_file_provider_get_modified_block(ptr noundef nonnull %10, ptr noundef %1)
  %12 = tail call ptr @wtap_block_ref(ptr noundef %11)
  br label %27

13:                                               ; preds = %2
  call void @llvm.lifetime.start.p0(i64 312, ptr nonnull %5) #23
  call void @wtap_rec_init(ptr noundef nonnull %5, i64 noundef 1514)
  call void @llvm.lifetime.start.p0(i64 4, ptr nonnull %3) #23
  call void @llvm.lifetime.start.p0(i64 8, ptr nonnull %4) #23
  %14 = getelementptr inbounds nuw i8, ptr %0, i64 224
  %15 = load ptr, ptr %14, align 8
  %16 = getelementptr inbounds nuw i8, ptr %1, i64 24
  %17 = load i64, ptr %16, align 8
  %18 = call zeroext i1 @wtap_seek_read(ptr noundef %15, i64 noundef %17, ptr noundef nonnull %5, ptr noundef nonnull %3, ptr noundef nonnull %4)
  br i1 %18, label %cf_read_record.exit, label %19

19:                                               ; preds = %13
  %20 = getelementptr inbounds nuw i8, ptr %0, i64 16
  %21 = load ptr, ptr %20, align 8
  %22 = load i32, ptr %3, align 4
  %23 = load ptr, ptr %4, align 8
  call void @report_cfile_read_failure(ptr noundef %21, i32 noundef %22, ptr noundef %23)
  br label %cf_read_record.exit

cf_read_record.exit:                              ; preds = %13, %19
  call void @llvm.lifetime.end.p0(i64 8, ptr nonnull %4) #23
  call void @llvm.lifetime.end.p0(i64 4, ptr nonnull %3) #23
  %24 = getelementptr inbounds nuw i8, ptr %5, i64 232
  %25 = load ptr, ptr %24, align 8
  %26 = call ptr @wtap_block_ref(ptr noundef %25)
  call void @wtap_rec_cleanup(ptr noundef nonnull %5)
  call void @llvm.lifetime.end.p0(i64 312, ptr nonnull %5) #23
  br label %27

27:                                               ; preds = %cf_read_record.exit, %9
  %.0 = phi ptr [ %12, %9 ], [ %26, %cf_read_record.exit ]
  ret ptr %.0
}